target datalayout = "e-m:e-p270:32:32-p271:32:32-p272:64:64-i64:64-i128:128-f80:128-n8:16:32:64-S128"
target triple = "x86_64-pc-linux-gnu"

%"class.std::basic_ostream" = type { ptr, %"class.std::basic_ios" }
%"class.std::basic_ios" = type { %"class.std::ios_base", ptr, i8, i8, ptr, ptr, ptr, ptr }
%"class.std::ios_base" = type { ptr, i64, i64, i32, i32, i32, ptr, %"struct.std::ios_base::_Words", [8 x %"struct.std::ios_base::_Words"], i32, ptr, %"class.std::locale" }
%"struct.std::ios_base::_Words" = type { ptr, i64 }
%"class.std::locale" = type { ptr }
%"class.boost::unit_test::output::compiler_log_formatter" = type { %"class.boost::unit_test::unit_test_log_formatter.base", i8, i32, [4 x i8] }
%"class.boost::unit_test::unit_test_log_formatter.base" = type <{ ptr, i32 }>
%"class.boost::unit_test::utils::setcolor" = type { i8, [13 x i8], i32 }

@_ZSt4cout = external global %"class.std::basic_ostream", align 8
@_ZSt4cerr = external global %"class.std::basic_ostream", align 8
@.str.38 = private unnamed_addr constant [15 x i8] c"%c[%c;3%c;4%cm\00", align 1

; Function Attrs: mustprogress uwtable
define available_externally noundef nonnull align 8 dereferenceable(8) ptr @_ZNSolsEPFRSoS_E(ptr noundef nonnull align 8 dereferenceable(8) %0, ptr noundef %1) #4 align 2 {
  %3 = alloca ptr, align 8
  %4 = alloca ptr, align 8
  store ptr %0, ptr %3, align 8, !tbaa !3
  store ptr %1, ptr %4, align 8, !tbaa !3
  %5 = load ptr, ptr %3, align 8
  %6 = load ptr, ptr %4, align 8, !tbaa !3
  %7 = call noundef nonnull align 8 dereferenceable(8) ptr %6(ptr noundef nonnull align 8 dereferenceable(8) %5)
  ret ptr %7
}

; Function Attrs: mustprogress uwtable
define linkonce_odr hidden noundef nonnull align 8 dereferenceable(8) ptr @_ZN5boost9unit_test5utilslsERSoRKNS1_8setcolorE(ptr noundef nonnull align 8 dereferenceable(8) %0, ptr noundef nonnull align 4 dereferenceable(20) %1) #4 comdat {
  %3 = alloca ptr, align 8
  %4 = alloca ptr, align 8
  %5 = alloca ptr, align 8
  store ptr %0, ptr %4, align 8, !tbaa !3
  store ptr %1, ptr %5, align 8, !tbaa !3
  %6 = load ptr, ptr %5, align 8, !tbaa !3
  %7 = getelementptr inbounds nuw %"class.boost::unit_test::utils::setcolor", ptr %6, i32 0, i32 0
  %8 = load i8, ptr %7, align 4, !tbaa !89, !range !11, !noundef !12
  %9 = trunc i8 %8 to i1
  br i1 %9, label %10, label %26

10:                                               ; preds = %2
  %11 = load ptr, ptr %4, align 8, !tbaa !3
  %12 = icmp eq ptr %11, @_ZSt4cout
  br i1 %12, label %16, label %13

13:                                               ; preds = %10
  %14 = load ptr, ptr %4, align 8, !tbaa !3
  %15 = icmp eq ptr %14, @_ZSt4cerr
  br i1 %15, label %16, label %26

16:                                               ; preds = %13, %10
  %17 = load ptr, ptr %4, align 8, !tbaa !3
  %18 = load ptr, ptr %5, align 8, !tbaa !3
  %19 = getelementptr inbounds nuw %"class.boost::unit_test::utils::setcolor", ptr %18, i32 0, i32 1
  %20 = getelementptr inbounds [13 x i8], ptr %19, i64 0, i64 0
  %21 = load ptr, ptr %5, align 8, !tbaa !3
  %22 = getelementptr inbounds nuw %"class.boost::unit_test::utils::setcolor", ptr %21, i32 0, i32 2
  %23 = load i32, ptr %22, align 4, !tbaa !91
  %24 = sext i32 %23 to i64
  %25 = call noundef nonnull align 8 dereferenceable(8) ptr @_ZNSo5writeEPKcl(ptr noundef nonnull align 8 dereferenceable(8) %17, ptr noundef %20, i64 noundef %24)
  store ptr %25, ptr %3, align 8
  br label %28

26:                                               ; preds = %13, %2
  %27 = load ptr, ptr %4, align 8, !tbaa !3
  store ptr %27, ptr %3, align 8
  br label %28

28:                                               ; preds = %26, %16
  %29 = load ptr, ptr %3, align 8
  ret ptr %29
}

; Function Attrs: mustprogress nounwind uwtable
define linkonce_odr hidden void @_ZN5boost9unit_test5utils8setcolorC2EbPi(ptr noundef nonnull align 4 dereferenceable(20) %0, i1 noundef zeroext %1, ptr noundef %2) unnamed_addr #9 comdat align 2 {
  %4 = alloca ptr, align 8
  %5 = alloca i8, align 1
  %6 = alloca ptr, align 8
  store ptr %0, ptr %4, align 8, !tbaa !3
  %7 = zext i1 %1 to i8
  store i8 %7, ptr %5, align 1, !tbaa !9
  store ptr %2, ptr %6, align 8, !tbaa !3
  %8 = load ptr, ptr %4, align 8
  %9 = getelementptr inbounds nuw %"class.boost::unit_test::utils::setcolor", ptr %8, i32 0, i32 0
  %10 = load i8, ptr %5, align 1, !tbaa !9, !range !11, !noundef !12
  %11 = trunc i8 %10 to i1
  %12 = zext i1 %11 to i8
  store i8 %12, ptr %9, align 4, !tbaa !89
  %13 = getelementptr inbounds nuw %"class.boost::unit_test::utils::setcolor", ptr %8, i32 0, i32 1
  %14 = getelementptr inbounds [13 x i8], ptr %13, i64 0, i64 0
  %15 = call i32 (ptr, i64, ptr, ...) @snprintf(ptr noundef %14, i64 noundef 13, ptr noundef @.str.38, i32 noundef 27, i32 noundef 48, i32 noundef 57, i32 noundef 57) #3
  %16 = getelementptr inbounds nuw %"class.boost::unit_test::utils::setcolor", ptr %8, i32 0, i32 2
  store i32 %15, ptr %16, align 4, !tbaa !91
  ret void
}

; Function Attrs: mustprogress uwtable
define void @_ZN5boost9unit_test6output22compiler_log_formatter16log_entry_finishERSo(ptr noundef nonnull align 8 dereferenceable(20) %0, ptr noundef nonnull align 8 dereferenceable(8) %1) unnamed_addr #4 align 2 {
  %3 = alloca ptr, align 8
  %4 = alloca ptr, align 8
  %5 = alloca %"class.boost::unit_test::utils::setcolor", align 4
  store ptr %0, ptr %3, align 8, !tbaa !3
  store ptr %1, ptr %4, align 8, !tbaa !3
  %6 = load ptr, ptr %3, align 8
  %7 = getelementptr inbounds nuw %"class.boost::unit_test::output::compiler_log_formatter", ptr %6, i32 0, i32 1
  %8 = load i8, ptr %7, align 4, !tbaa !13, !range !11, !noundef !12
  %9 = trunc i8 %8 to i1
  br i1 %9, label %10, label %17

10:                                               ; preds = %2
  %11 = load ptr, ptr %4, align 8, !tbaa !3
  call void @llvm.lifetime.start.p0(i64 20, ptr %5) #3
  %12 = getelementptr inbounds nuw %"class.boost::unit_test::output::compiler_log_formatter", ptr %6, i32 0, i32 1
  %13 = load i8, ptr %12, align 4, !tbaa !13, !range !11, !noundef !12
  %14 = trunc i8 %13 to i1
  %15 = getelementptr inbounds nuw %"class.boost::unit_test::output::compiler_log_formatter", ptr %6, i32 0, i32 2
  call void @_ZN5boost9unit_test5utils8setcolorC2EbPi(ptr noundef nonnull align 4 dereferenceable(20) %5, i1 noundef zeroext %14, ptr noundef %15)
  %16 = call noundef nonnull align 8 dereferenceable(8) ptr @_ZN5boost9unit_test5utilslsERSoRKNS1_8setcolorE(ptr noundef nonnull align 8 dereferenceable(8) %11, ptr noundef nonnull align 4 dereferenceable(20) %5)
  call void @llvm.lifetime.end.p0(i64 20, ptr %5) #3
  br label %17

17:                                               ; preds = %10, %2
  %18 = load ptr, ptr %4, align 8, !tbaa !3
  %19 = call noundef nonnull align 8 dereferenceable(8) ptr @_ZNSolsEPFRSoS_E(ptr noundef nonnull align 8 dereferenceable(8) %18, ptr noundef @_ZSt4endlIcSt11char_traitsIcEERSt13basic_ostreamIT_T0_ES6_)
  ret void
}