; Function Attrs: mustprogress uwtable
define void @_ZN5boost9unit_test6output22compiler_log_formatter16log_entry_finishERSo(ptr nocapture noundef nonnull readonly align 8 dereferenceable(20) %0, ptr noundef nonnull align 8 dereferenceable(8) %1) unnamed_addr #3 align 2 {
  %3 = alloca %"class.boost::unit_test::utils::setcolor", align 4
  %4 = getelementptr inbounds nuw i8, ptr %0, i64 12
  %5 = load i8, ptr %4, align 4, !tbaa !18, !range !16, !noundef !17
  %6 = trunc nuw i8 %5 to i1
  br i1 %6, label %7, label %19

7:                                                ; preds = %2
  call void @llvm.lifetime.start.p0(i64 20, ptr nonnull %3) #21
  store i8 1, ptr %3, align 4, !tbaa !40
  %8 = getelementptr inbounds nuw i8, ptr %3, i64 1
  %9 = call i32 (ptr, i64, ptr, ...) @snprintf(ptr noundef nonnull dereferenceable(1) %8, i64 noundef 13, ptr noundef nonnull @.str.38, i32 noundef 27, i32 noundef 48, i32 noundef 57, i32 noundef 57) #21
  %10 = getelementptr inbounds nuw i8, ptr %3, i64 16
  store i32 %9, ptr %10, align 4, !tbaa !42
  %11 = load i8, ptr %3, align 4, !tbaa !40, !range !16, !noundef !17
  %12 = trunc nuw i8 %11 to i1
  br i1 %12, label %13, label %_ZN5boost9unit_test5utilslsERSoRKNS1_8setcolorE.exit

13:                                               ; preds = %7
  %14 = icmp eq ptr %1, @_ZSt4cout
  %15 = icmp eq ptr %1, @_ZSt4cerr
  %or.cond.i = or i1 %14, %15
  br i1 %or.cond.i, label %16, label %_ZN5boost9unit_test5utilslsERSoRKNS1_8setcolorE.exit

16:                                               ; preds = %13
  %17 = sext i32 %9 to i64
  %18 = call noundef nonnull align 8 dereferenceable(8) ptr @_ZNSo5writeEPKcl(ptr noundef nonnull align 8 dereferenceable(8) %1, ptr noundef nonnull %8, i64 noundef %17)
  br label %_ZN5boost9unit_test5utilslsERSoRKNS1_8setcolorE.exit

_ZN5boost9unit_test5utilslsERSoRKNS1_8setcolorE.exit: ; preds = %7, %13, %16
  call void @llvm.lifetime.end.p0(i64 20, ptr nonnull %3) #21
  br label %19

19:                                               ; preds = %_ZN5boost9unit_test5utilslsERSoRKNS1_8setcolorE.exit, %2
  %20 = load ptr, ptr %1, align 8, !tbaa !24
  %21 = getelementptr i8, ptr %20, i64 -24
  %22 = load i64, ptr %21, align 8
  %23 = getelementptr inbounds i8, ptr %1, i64 %22
  %24 = getelementptr inbounds nuw i8, ptr %23, i64 240
  %25 = load ptr, ptr %24, align 8, !tbaa !32
  %.not.i.i.i = icmp eq ptr %25, null
  br i1 %.not.i.i.i, label %26, label %_ZSt13__check_facetISt5ctypeIcEERKT_PS3_.exit.i.i

26:                                               ; preds = %19
  call void @_ZSt16__throw_bad_castv() #20
  unreachable

_ZSt13__check_facetISt5ctypeIcEERKT_PS3_.exit.i.i: ; preds = %19
  %27 = getelementptr inbounds nuw i8, ptr %25, i64 56
  %28 = load i8, ptr %27, align 8, !tbaa !34
  %.not.i1.i.i = icmp eq i8 %28, 0
  br i1 %.not.i1.i.i, label %32, label %29

29:                                               ; preds = %_ZSt13__check_facetISt5ctypeIcEERKT_PS3_.exit.i.i
  %30 = getelementptr inbounds nuw i8, ptr %25, i64 67
  %31 = load i8, ptr %30, align 1, !tbaa !23
  br label %_ZSt4endlIcSt11char_traitsIcEERSt13basic_ostreamIT_T0_ES6_.exit

32:                                               ; preds = %_ZSt13__check_facetISt5ctypeIcEERKT_PS3_.exit.i.i
  call void @_ZNKSt5ctypeIcE13_M_widen_initEv(ptr noundef nonnull align 8 dereferenceable(570) %25)
  %33 = load ptr, ptr %25, align 8, !tbaa !24
  %34 = getelementptr inbounds i8, ptr %33, i64 48
  %35 = load ptr, ptr %34, align 8
  %36 = call noundef signext i8 %35(ptr noundef nonnull align 8 dereferenceable(570) %25, i8 noundef signext 10)
  br label %_ZSt4endlIcSt11char_traitsIcEERSt13basic_ostreamIT_T0_ES6_.exit

_ZSt4endlIcSt11char_traitsIcEERSt13basic_ostreamIT_T0_ES6_.exit: ; preds = %29, %32
  %.0.i.i.i = phi i8 [ %31, %29 ], [ %36, %32 ]
  %37 = call noundef nonnull align 8 dereferenceable(8) ptr @_ZNSo3putEc(ptr noundef nonnull align 8 dereferenceable(8) %1, i8 noundef signext %.0.i.i.i)
  %38 = call noundef nonnull align 8 dereferenceable(8) ptr @_ZNSo5flushEv(ptr noundef nonnull align 8 dereferenceable(8) %37)
  ret void
}